; Function Attrs: mustprogress uwtable
define hidden noundef ptr @pj_putp2(ptr noundef writeonly %0) local_unnamed_addr #0 {
  %.not = icmp eq ptr %0, null
  br i1 %.not, label %6, label %2

2:                                                ; preds = %1
  %3 = getelementptr inbounds nuw i8, ptr %0, i64 216
  store double 0.000000e+00, ptr %3, align 8, !tbaa !3
  %4 = getelementptr inbounds nuw i8, ptr %0, i64 112
  store ptr @_ZL15putp2_s_inverse5PJ_XYP8PJconsts, ptr %4, align 8, !tbaa !36
  %5 = getelementptr inbounds nuw i8, ptr %0, i64 104
  store ptr @_ZL15putp2_s_forward5PJ_LPP8PJconsts, ptr %5, align 8, !tbaa !37
  br label %15

6:                                                ; preds = %1
  %7 = tail call noundef ptr @_Z6pj_newv()
  %8 = icmp eq ptr %7, null
  br i1 %8, label %15, label %9

9:                                                ; preds = %6
  %10 = getelementptr inbounds nuw i8, ptr %7, i64 8
  store ptr @.str, ptr %10, align 8, !tbaa !38
  %11 = getelementptr inbounds nuw i8, ptr %7, i64 16
  store ptr @_ZL9des_putp2, ptr %11, align 8, !tbaa !39
  %12 = getelementptr inbounds nuw i8, ptr %7, i64 360
  store i32 1, ptr %12, align 8, !tbaa !40
  %13 = getelementptr inbounds nuw i8, ptr %7, i64 380
  store i32 4, ptr %13, align 4, !tbaa !41
  %14 = getelementptr inbounds nuw i8, ptr %7, i64 384
  store i32 1, ptr %14, align 8, !tbaa !42
  br label %15

15:                                               ; preds = %6, %9, %2
  %.0 = phi ptr [ %0, %2 ], [ %7, %9 ], [ null, %6 ]
  ret ptr %.0
}